target datalayout = "e-m:e-p270:32:32-p271:32:32-p272:64:64-i64:64-i128:128-f80:128-n8:16:32:64-S128"
target triple = "x86_64-pc-linux-gnu"

%struct.X509_VERIFY_PARAM_st = type { ptr, i64, i64, i64, i32, i32, i32, ptr, ptr }

; Function Attrs: nounwind uwtable
define hidden void @X509_VERIFY_PARAM_free(ptr noundef %0) #0 {
  %2 = alloca ptr, align 8
  store ptr %0, ptr %2, align 8, !tbaa !6
  %3 = load ptr, ptr %2, align 8, !tbaa !6
  %4 = icmp eq ptr %3, null
  br i1 %4, label %5, label %6

5:                                                ; preds = %1
  br label %12

6:                                                ; preds = %1
  %7 = load ptr, ptr %2, align 8, !tbaa !6
  call void @x509_verify_param_zero(ptr noundef %7)
  %8 = load ptr, ptr %2, align 8, !tbaa !6
  %9 = getelementptr inbounds nuw %struct.X509_VERIFY_PARAM_st, ptr %8, i32 0, i32 8
  %10 = load ptr, ptr %9, align 8, !tbaa !13
  call void @free(ptr noundef %10) #7
  %11 = load ptr, ptr %2, align 8, !tbaa !6
  call void @free(ptr noundef %11) #7
  br label %12

12:                                               ; preds = %6, %5
  ret void
}