; Function Attrs: nounwind uwtable
define hidden void @X509_VERIFY_PARAM_free(ptr noundef captures(address_is_null) %0) #0 {
  %2 = icmp eq ptr %0, null
  br i1 %2, label %6, label %3

3:                                                ; preds = %1
  tail call fastcc void @x509_verify_param_zero(ptr noundef %0)
  %4 = getelementptr inbounds nuw i8, ptr %0, i64 56
  %5 = load ptr, ptr %4, align 8, !tbaa !6
  tail call void @free(ptr noundef %5) #16
  tail call void @free(ptr noundef nonnull %0) #16
  br label %6

6:                                                ; preds = %1, %3
  ret void
}